target datalayout = "e-m:e-p270:32:32-p271:32:32-p272:64:64-i64:64-i128:128-f80:128-n8:16:32:64-S128"
target triple = "x86_64-pc-linux-gnu"

%struct._zend_refcounted_h = type { i32, %union.anon }
%union.anon = type { i32 }
%struct._zval_struct = type { %union._zend_value, %union.anon.0, %union.anon.3 }
%union._zend_value = type { i64 }
%union.anon.0 = type { i32 }
%union.anon.3 = type { i32 }
%struct._zend_string = type { %struct._zend_refcounted_h, i64, i64, [1 x i8] }

@zend_write = global ptr null, align 8

; Function Attrs: nounwind uwtable
define i64 @zend_print_zval(ptr noundef %0, i32 noundef %1) #0 {
  %3 = alloca ptr, align 8
  %4 = alloca i32, align 4
  %5 = alloca ptr, align 8
  %6 = alloca i8, align 1
  %7 = alloca ptr, align 8
  %8 = alloca ptr, align 8
  %9 = alloca ptr, align 8
  %10 = alloca ptr, align 8
  %11 = alloca ptr, align 8
  %12 = alloca ptr, align 8
  %13 = alloca i32, align 4
  %14 = alloca ptr, align 8
  %15 = alloca ptr, align 8
  %16 = alloca i64, align 8
  store ptr %0, ptr %12, align 8
  store i32 %1, ptr %13, align 4
  %17 = load ptr, ptr %12, align 8
  store ptr %17, ptr %10, align 8
  store ptr %14, ptr %11, align 8
  %18 = load ptr, ptr %10, align 8
  store ptr %18, ptr %8, align 8
  %19 = load ptr, ptr %8, align 8
  %20 = getelementptr inbounds %struct._zval_struct, ptr %19, i32 0, i32 1
  %21 = load i8, ptr %20, align 8
  %22 = zext i8 %21 to i32
  %23 = icmp eq i32 %22, 6
  br i1 %23, label %24, label %28

24:                                               ; preds = %2
  %25 = load ptr, ptr %11, align 8
  store ptr null, ptr %25, align 8
  %26 = load ptr, ptr %10, align 8
  %27 = load ptr, ptr %26, align 8
  store ptr %27, ptr %9, align 8
  br label %32

28:                                               ; preds = %2
  %29 = load ptr, ptr %10, align 8
  %30 = call ptr @zval_get_string_func(ptr noundef %29) #18
  %31 = load ptr, ptr %11, align 8
  store ptr %30, ptr %31, align 8
  store ptr %30, ptr %9, align 8
  br label %32

32:                                               ; preds = %28, %24
  %33 = load ptr, ptr %9, align 8
  store ptr %33, ptr %15, align 8
  %34 = load ptr, ptr %15, align 8
  %35 = getelementptr inbounds %struct._zend_string, ptr %34, i32 0, i32 2
  %36 = load i64, ptr %35, align 8
  store i64 %36, ptr %16, align 8
  %37 = load i64, ptr %16, align 8
  %38 = icmp ne i64 %37, 0
  br i1 %38, label %39, label %46

39:                                               ; preds = %32
  %40 = load ptr, ptr @zend_write, align 8
  %41 = load ptr, ptr %15, align 8
  %42 = getelementptr inbounds %struct._zend_string, ptr %41, i32 0, i32 3
  %43 = getelementptr inbounds [1 x i8], ptr %42, i64 0, i64 0
  %44 = load i64, ptr %16, align 8
  %45 = call i64 %40(ptr noundef %43, i64 noundef %44)
  br label %46

46:                                               ; preds = %39, %32
  %47 = load ptr, ptr %14, align 8
  store ptr %47, ptr %7, align 8
  %48 = load ptr, ptr %7, align 8
  %49 = icmp ne ptr %48, null
  br i1 %49, label %50, label %78

50:                                               ; preds = %46
  %51 = load ptr, ptr %7, align 8
  store ptr %51, ptr %5, align 8
  store i8 0, ptr %6, align 1
  %52 = load ptr, ptr %5, align 8
  %53 = getelementptr inbounds %struct._zend_refcounted_h, ptr %52, i32 0, i32 1
  %54 = load i32, ptr %53, align 4
  store i32 %54, ptr %4, align 4
  %55 = load i32, ptr %4, align 4
  %56 = and i32 %55, 1008
  %57 = and i32 %56, 64
  %58 = icmp ne i32 %57, 0
  br i1 %58, label %77, label %59

59:                                               ; preds = %50
  %60 = load ptr, ptr %5, align 8
  store ptr %60, ptr %3, align 8
  %61 = load ptr, ptr %3, align 8
  %62 = load i32, ptr %61, align 4
  %63 = icmp ugt i32 %62, 0
  call void @llvm.assume(i1 %63)
  %64 = load ptr, ptr %3, align 8
  %65 = load i32, ptr %64, align 4
  %66 = add i32 %65, -1
  store i32 %66, ptr %64, align 4
  %67 = icmp eq i32 %66, 0
  br i1 %67, label %68, label %76

68:                                               ; preds = %59
  %69 = load i8, ptr %6, align 1
  %70 = trunc i8 %69 to i1
  br i1 %70, label %71, label %73

71:                                               ; preds = %68
  %72 = load ptr, ptr %5, align 8
  call void @free(ptr noundef %72) #18
  br label %75

73:                                               ; preds = %68
  %74 = load ptr, ptr %5, align 8
  call void @_efree(ptr noundef %74) #18
  br label %75

75:                                               ; preds = %73, %71
  br label %76

76:                                               ; preds = %75, %59
  br label %77

77:                                               ; preds = %76, %50
  br label %78

78:                                               ; preds = %77, %46
  %79 = load i64, ptr %16, align 8
  ret i64 %79
}