; Function Attrs: nounwind uwtable
define i64 @zend_print_zval(ptr noundef %0, i32 noundef %1) local_unnamed_addr #0 {
  %3 = getelementptr inbounds i8, ptr %0, i64 8
  %4 = load i8, ptr %3, align 8
  %5 = icmp eq i8 %4, 6
  br i1 %5, label %6, label %8

6:                                                ; preds = %2
  %7 = load ptr, ptr %0, align 8
  br label %10

8:                                                ; preds = %2
  %9 = tail call ptr @zval_get_string_func(ptr noundef nonnull %0) #30
  br label %10

10:                                               ; preds = %8, %6
  %.022 = phi ptr [ null, %6 ], [ %9, %8 ]
  %.0 = phi ptr [ %7, %6 ], [ %9, %8 ]
  %11 = getelementptr inbounds i8, ptr %.0, i64 16
  %12 = load i64, ptr %11, align 8
  %.not = icmp eq i64 %12, 0
  br i1 %.not, label %17, label %13

13:                                               ; preds = %10
  %14 = load ptr, ptr @zend_write, align 8
  %15 = getelementptr inbounds i8, ptr %.0, i64 24
  %16 = tail call i64 %14(ptr noundef nonnull %15, i64 noundef %12) #30
  br label %17

17:                                               ; preds = %13, %10
  %.not24 = icmp eq ptr %.022, null
  br i1 %.not24, label %28, label %18

18:                                               ; preds = %17
  %19 = getelementptr inbounds i8, ptr %.022, i64 4
  %20 = load i32, ptr %19, align 4
  %21 = and i32 %20, 64
  %.not25 = icmp eq i32 %21, 0
  br i1 %.not25, label %22, label %28

22:                                               ; preds = %18
  %23 = load i32, ptr %.022, align 4
  %24 = icmp ne i32 %23, 0
  tail call void @llvm.assume(i1 %24)
  %25 = add i32 %23, -1
  store i32 %25, ptr %.022, align 4
  %26 = icmp eq i32 %25, 0
  br i1 %26, label %27, label %28

27:                                               ; preds = %22
  tail call void @_efree(ptr noundef nonnull %.022) #30
  br label %28

28:                                               ; preds = %18, %27, %22, %17
  ret i64 %12
}